target datalayout = "e-m:e-p270:32:32-p271:32:32-p272:64:64-i64:64-i128:128-f80:128-n8:16:32:64-S128"
target triple = "x86_64-pc-linux-gnu"

%struct.mpd_t = type { i8, i64, i64, i64, i64, ptr }

; Function Attrs: alwaysinline nounwind uwtable
define hidden void @mpd_set_shared_data(ptr noundef %0) #1 {
  %2 = alloca ptr, align 8
  store ptr %0, ptr %2, align 8, !tbaa !7
  %3 = load ptr, ptr %2, align 8, !tbaa !7
  %4 = getelementptr inbounds nuw %struct.mpd_t, ptr %3, i32 0, i32 0
  %5 = load i8, ptr %4, align 8, !tbaa !25
  %6 = zext i8 %5 to i32
  %7 = and i32 %6, -225
  %8 = trunc i32 %7 to i8
  store i8 %8, ptr %4, align 8, !tbaa !25
  %9 = load ptr, ptr %2, align 8, !tbaa !7
  %10 = getelementptr inbounds nuw %struct.mpd_t, ptr %9, i32 0, i32 0
  %11 = load i8, ptr %10, align 8, !tbaa !25
  %12 = zext i8 %11 to i32
  %13 = or i32 %12, 64
  %14 = trunc i32 %13 to i8
  store i8 %14, ptr %10, align 8, !tbaa !25
  ret void
}

; Function Attrs: alwaysinline nounwind uwtable
define hidden void @mpd_set_positive(ptr noundef %0) #1 {
  %2 = alloca ptr, align 8
  store ptr %0, ptr %2, align 8, !tbaa !7
  %3 = load ptr, ptr %2, align 8, !tbaa !7
  %4 = getelementptr inbounds nuw %struct.mpd_t, ptr %3, i32 0, i32 0
  %5 = load i8, ptr %4, align 8, !tbaa !25
  %6 = zext i8 %5 to i32
  %7 = and i32 %6, -2
  %8 = trunc i32 %7 to i8
  store i8 %8, ptr %4, align 8, !tbaa !25
  ret void
}

; Function Attrs: inlinehint nounwind uwtable
define internal void @_mpd_copy_shared(ptr noundef %0, ptr noundef %1) #2 {
  %3 = alloca ptr, align 8
  %4 = alloca ptr, align 8
  store ptr %0, ptr %3, align 8, !tbaa !7
  store ptr %1, ptr %4, align 8, !tbaa !7
  %5 = load ptr, ptr %4, align 8, !tbaa !7
  %6 = getelementptr inbounds nuw %struct.mpd_t, ptr %5, i32 0, i32 0
  %7 = load i8, ptr %6, align 8, !tbaa !25
  %8 = load ptr, ptr %3, align 8, !tbaa !7
  %9 = getelementptr inbounds nuw %struct.mpd_t, ptr %8, i32 0, i32 0
  store i8 %7, ptr %9, align 8, !tbaa !25
  %10 = load ptr, ptr %4, align 8, !tbaa !7
  %11 = getelementptr inbounds nuw %struct.mpd_t, ptr %10, i32 0, i32 1
  %12 = load i64, ptr %11, align 8, !tbaa !10
  %13 = load ptr, ptr %3, align 8, !tbaa !7
  %14 = getelementptr inbounds nuw %struct.mpd_t, ptr %13, i32 0, i32 1
  store i64 %12, ptr %14, align 8, !tbaa !10
  %15 = load ptr, ptr %4, align 8, !tbaa !7
  %16 = getelementptr inbounds nuw %struct.mpd_t, ptr %15, i32 0, i32 2
  %17 = load i64, ptr %16, align 8, !tbaa !13
  %18 = load ptr, ptr %3, align 8, !tbaa !7
  %19 = getelementptr inbounds nuw %struct.mpd_t, ptr %18, i32 0, i32 2
  store i64 %17, ptr %19, align 8, !tbaa !13
  %20 = load ptr, ptr %4, align 8, !tbaa !7
  %21 = getelementptr inbounds nuw %struct.mpd_t, ptr %20, i32 0, i32 3
  %22 = load i64, ptr %21, align 8, !tbaa !22
  %23 = load ptr, ptr %3, align 8, !tbaa !7
  %24 = getelementptr inbounds nuw %struct.mpd_t, ptr %23, i32 0, i32 3
  store i64 %22, ptr %24, align 8, !tbaa !22
  %25 = load ptr, ptr %4, align 8, !tbaa !7
  %26 = getelementptr inbounds nuw %struct.mpd_t, ptr %25, i32 0, i32 4
  %27 = load i64, ptr %26, align 8, !tbaa !31
  %28 = load ptr, ptr %3, align 8, !tbaa !7
  %29 = getelementptr inbounds nuw %struct.mpd_t, ptr %28, i32 0, i32 4
  store i64 %27, ptr %29, align 8, !tbaa !31
  %30 = load ptr, ptr %4, align 8, !tbaa !7
  %31 = getelementptr inbounds nuw %struct.mpd_t, ptr %30, i32 0, i32 5
  %32 = load ptr, ptr %31, align 8, !tbaa !21
  %33 = load ptr, ptr %3, align 8, !tbaa !7
  %34 = getelementptr inbounds nuw %struct.mpd_t, ptr %33, i32 0, i32 5
  store ptr %32, ptr %34, align 8, !tbaa !21
  %35 = load ptr, ptr %3, align 8, !tbaa !7
  call void @mpd_set_shared_data(ptr noundef %35)
  ret void
}

; Function Attrs: nounwind uwtable
define hidden i32 @mpd_cmp_total_mag(ptr noundef %0, ptr noundef %1) #0 {
  %3 = alloca ptr, align 8
  %4 = alloca ptr, align 8
  %5 = alloca %struct.mpd_t, align 8
  %6 = alloca %struct.mpd_t, align 8
  store ptr %0, ptr %3, align 8, !tbaa !7
  store ptr %1, ptr %4, align 8, !tbaa !7
  call void @llvm.lifetime.start.p0(i64 48, ptr %5) #10
  call void @llvm.lifetime.start.p0(i64 48, ptr %6) #10
  %7 = load ptr, ptr %3, align 8, !tbaa !7
  call void @_mpd_copy_shared(ptr noundef %5, ptr noundef %7)
  %8 = load ptr, ptr %4, align 8, !tbaa !7
  call void @_mpd_copy_shared(ptr noundef %6, ptr noundef %8)
  call void @mpd_set_positive(ptr noundef %5)
  call void @mpd_set_positive(ptr noundef %6)
  %9 = call i32 @mpd_cmp_total(ptr noundef %5, ptr noundef %6)
  call void @llvm.lifetime.end.p0(i64 48, ptr %6) #10
  call void @llvm.lifetime.end.p0(i64 48, ptr %5) #10
  ret i32 %9
}