; Function Attrs: nofree norecurse nosync nounwind memory(read, inaccessiblemem: none) uwtable
define hidden range(i32 -1, 2) i32 @mpd_cmp_total_mag(ptr noundef readonly captures(none) %0, ptr noundef readonly captures(none) %1) local_unnamed_addr #13 {
  %3 = alloca %struct.mpd_t, align 8
  %4 = alloca %struct.mpd_t, align 8
  call void @llvm.lifetime.start.p0(i64 48, ptr nonnull %3) #33
  call void @llvm.lifetime.start.p0(i64 48, ptr nonnull %4) #33
  %5 = load i8, ptr %0, align 8, !tbaa !19
  %6 = getelementptr inbounds nuw i8, ptr %0, i64 8
  %7 = load i64, ptr %6, align 8, !tbaa !7
  %8 = getelementptr inbounds nuw i8, ptr %3, i64 8
  store i64 %7, ptr %8, align 8, !tbaa !7
  %9 = getelementptr inbounds nuw i8, ptr %0, i64 16
  %10 = load i64, ptr %9, align 8, !tbaa !11
  %11 = getelementptr inbounds nuw i8, ptr %3, i64 16
  store i64 %10, ptr %11, align 8, !tbaa !11
  %12 = getelementptr inbounds nuw i8, ptr %0, i64 24
  %13 = load i64, ptr %12, align 8, !tbaa !18
  %14 = getelementptr inbounds nuw i8, ptr %3, i64 24
  store i64 %13, ptr %14, align 8, !tbaa !18
  %15 = getelementptr inbounds nuw i8, ptr %0, i64 32
  %16 = load i64, ptr %15, align 8, !tbaa !21
  %17 = getelementptr inbounds nuw i8, ptr %3, i64 32
  store i64 %16, ptr %17, align 8, !tbaa !21
  %18 = getelementptr inbounds nuw i8, ptr %0, i64 40
  %19 = load ptr, ptr %18, align 8, !tbaa !17
  %20 = getelementptr inbounds nuw i8, ptr %3, i64 40
  store ptr %19, ptr %20, align 8, !tbaa !17
  %21 = load i8, ptr %1, align 8, !tbaa !19
  %22 = getelementptr inbounds nuw i8, ptr %1, i64 8
  %23 = load i64, ptr %22, align 8, !tbaa !7
  %24 = getelementptr inbounds nuw i8, ptr %4, i64 8
  store i64 %23, ptr %24, align 8, !tbaa !7
  %25 = getelementptr inbounds nuw i8, ptr %1, i64 16
  %26 = load i64, ptr %25, align 8, !tbaa !11
  %27 = getelementptr inbounds nuw i8, ptr %4, i64 16
  store i64 %26, ptr %27, align 8, !tbaa !11
  %28 = getelementptr inbounds nuw i8, ptr %1, i64 24
  %29 = load i64, ptr %28, align 8, !tbaa !18
  %30 = getelementptr inbounds nuw i8, ptr %4, i64 24
  store i64 %29, ptr %30, align 8, !tbaa !18
  %31 = getelementptr inbounds nuw i8, ptr %1, i64 32
  %32 = load i64, ptr %31, align 8, !tbaa !21
  %33 = getelementptr inbounds nuw i8, ptr %4, i64 32
  store i64 %32, ptr %33, align 8, !tbaa !21
  %34 = getelementptr inbounds nuw i8, ptr %1, i64 40
  %35 = load ptr, ptr %34, align 8, !tbaa !17
  %36 = getelementptr inbounds nuw i8, ptr %4, i64 40
  store ptr %35, ptr %36, align 8, !tbaa !17
  %37 = and i8 %5, 30
  %38 = or disjoint i8 %37, 64
  store i8 %38, ptr %3, align 8, !tbaa !19
  %39 = and i8 %21, 30
  %40 = or disjoint i8 %39, 64
  store i8 %40, ptr %4, align 8, !tbaa !19
  %41 = call i32 @mpd_cmp_total(ptr noundef nonnull %3, ptr noundef nonnull %4)
  call void @llvm.lifetime.end.p0(i64 48, ptr nonnull %4) #33
  call void @llvm.lifetime.end.p0(i64 48, ptr nonnull %3) #33
  ret i32 %41
}